target datalayout = "e-m:e-p270:32:32-p271:32:32-p272:64:64-i64:64-i128:128-f80:128-n8:16:32:64-S128"
target triple = "x86_64-pc-linux-gnu"

; Function Attrs: inlinehint nounwind uwtable
define internal void @copy_block16(ptr noundef %0, ptr noundef %1, i64 noundef %2, i64 noundef %3, i32 noundef %4) #9 {
  %6 = alloca ptr, align 8
  %7 = alloca ptr, align 8
  %8 = alloca i64, align 8
  %9 = alloca i64, align 8
  %10 = alloca i32, align 4
  %11 = alloca i32, align 4
  store ptr %0, ptr %6, align 8, !tbaa !63
  store ptr %1, ptr %7, align 8, !tbaa !63
  store i64 %2, ptr %8, align 8, !tbaa !112
  store i64 %3, ptr %9, align 8, !tbaa !112
  store i32 %4, ptr %10, align 4, !tbaa !44
  call void @llvm.lifetime.start.p0(i64 4, ptr %11) #10
  store i32 0, ptr %11, align 4, !tbaa !44
  br label %12

12:                                               ; preds = %34, %5
  %13 = load i32, ptr %11, align 4, !tbaa !44
  %14 = load i32, ptr %10, align 4, !tbaa !44
  %15 = icmp slt i32 %13, %14
  br i1 %15, label %16, label %37

16:                                               ; preds = %12
  br label %17

17:                                               ; preds = %16
  %18 = load ptr, ptr %7, align 8, !tbaa !63
  %19 = load i64, ptr %18, align 1, !tbaa !42
  %20 = load ptr, ptr %6, align 8, !tbaa !63
  store i64 %19, ptr %20, align 1, !tbaa !42
  %21 = load ptr, ptr %7, align 8, !tbaa !63
  %22 = getelementptr inbounds i8, ptr %21, i64 8
  %23 = load i64, ptr %22, align 1, !tbaa !42
  %24 = load ptr, ptr %6, align 8, !tbaa !63
  %25 = getelementptr inbounds i8, ptr %24, i64 8
  store i64 %23, ptr %25, align 1, !tbaa !42
  br label %26

26:                                               ; preds = %17
  br label %27

27:                                               ; preds = %26
  %28 = load i64, ptr %8, align 8, !tbaa !112
  %29 = load ptr, ptr %6, align 8, !tbaa !63
  %30 = getelementptr inbounds i8, ptr %29, i64 %28
  store ptr %30, ptr %6, align 8, !tbaa !63
  %31 = load i64, ptr %9, align 8, !tbaa !112
  %32 = load ptr, ptr %7, align 8, !tbaa !63
  %33 = getelementptr inbounds i8, ptr %32, i64 %31
  store ptr %33, ptr %7, align 8, !tbaa !63
  br label %34

34:                                               ; preds = %27
  %35 = load i32, ptr %11, align 4, !tbaa !44
  %36 = add nsw i32 %35, 1
  store i32 %36, ptr %11, align 4, !tbaa !44
  br label %12, !llvm.loop !219

37:                                               ; preds = %12
  call void @llvm.lifetime.end.p0(i64 4, ptr %11) #10
  ret void
}

; Function Attrs: inlinehint nounwind uwtable
define internal void @copy_block8(ptr noundef %0, ptr noundef %1, i64 noundef %2, i64 noundef %3, i32 noundef %4) #9 {
  %6 = alloca ptr, align 8
  %7 = alloca ptr, align 8
  %8 = alloca i64, align 8
  %9 = alloca i64, align 8
  %10 = alloca i32, align 4
  %11 = alloca i32, align 4
  store ptr %0, ptr %6, align 8, !tbaa !63
  store ptr %1, ptr %7, align 8, !tbaa !63
  store i64 %2, ptr %8, align 8, !tbaa !112
  store i64 %3, ptr %9, align 8, !tbaa !112
  store i32 %4, ptr %10, align 4, !tbaa !44
  call void @llvm.lifetime.start.p0(i64 4, ptr %11) #10
  store i32 0, ptr %11, align 4, !tbaa !44
  br label %12

12:                                               ; preds = %26, %5
  %13 = load i32, ptr %11, align 4, !tbaa !44
  %14 = load i32, ptr %10, align 4, !tbaa !44
  %15 = icmp slt i32 %13, %14
  br i1 %15, label %16, label %29

16:                                               ; preds = %12
  %17 = load ptr, ptr %7, align 8, !tbaa !63
  %18 = load i64, ptr %17, align 1, !tbaa !42
  %19 = load ptr, ptr %6, align 8, !tbaa !63
  store i64 %18, ptr %19, align 1, !tbaa !42
  %20 = load i64, ptr %8, align 8, !tbaa !112
  %21 = load ptr, ptr %6, align 8, !tbaa !63
  %22 = getelementptr inbounds i8, ptr %21, i64 %20
  store ptr %22, ptr %6, align 8, !tbaa !63
  %23 = load i64, ptr %9, align 8, !tbaa !112
  %24 = load ptr, ptr %7, align 8, !tbaa !63
  %25 = getelementptr inbounds i8, ptr %24, i64 %23
  store ptr %25, ptr %7, align 8, !tbaa !63
  br label %26

26:                                               ; preds = %16
  %27 = load i32, ptr %11, align 4, !tbaa !44
  %28 = add nsw i32 %27, 1
  store i32 %28, ptr %11, align 4, !tbaa !44
  br label %12, !llvm.loop !218

29:                                               ; preds = %12
  call void @llvm.lifetime.end.p0(i64 4, ptr %11) #10
  ret void
}

; Function Attrs: inlinehint nounwind uwtable
define internal void @copy_block4(ptr noundef %0, ptr noundef %1, i64 noundef %2, i64 noundef %3, i32 noundef %4) #9 {
  %6 = alloca ptr, align 8
  %7 = alloca ptr, align 8
  %8 = alloca i64, align 8
  %9 = alloca i64, align 8
  %10 = alloca i32, align 4
  %11 = alloca i32, align 4
  store ptr %0, ptr %6, align 8, !tbaa !63
  store ptr %1, ptr %7, align 8, !tbaa !63
  store i64 %2, ptr %8, align 8, !tbaa !112
  store i64 %3, ptr %9, align 8, !tbaa !112
  store i32 %4, ptr %10, align 4, !tbaa !44
  call void @llvm.lifetime.start.p0(i64 4, ptr %11) #10
  store i32 0, ptr %11, align 4, !tbaa !44
  br label %12

12:                                               ; preds = %26, %5
  %13 = load i32, ptr %11, align 4, !tbaa !44
  %14 = load i32, ptr %10, align 4, !tbaa !44
  %15 = icmp slt i32 %13, %14
  br i1 %15, label %16, label %29

16:                                               ; preds = %12
  %17 = load ptr, ptr %7, align 8, !tbaa !63
  %18 = load i32, ptr %17, align 1, !tbaa !42
  %19 = load ptr, ptr %6, align 8, !tbaa !63
  store i32 %18, ptr %19, align 1, !tbaa !42
  %20 = load i64, ptr %8, align 8, !tbaa !112
  %21 = load ptr, ptr %6, align 8, !tbaa !63
  %22 = getelementptr inbounds i8, ptr %21, i64 %20
  store ptr %22, ptr %6, align 8, !tbaa !63
  %23 = load i64, ptr %9, align 8, !tbaa !112
  %24 = load ptr, ptr %7, align 8, !tbaa !63
  %25 = getelementptr inbounds i8, ptr %24, i64 %23
  store ptr %25, ptr %7, align 8, !tbaa !63
  br label %26

26:                                               ; preds = %16
  %27 = load i32, ptr %11, align 4, !tbaa !44
  %28 = add nsw i32 %27, 1
  store i32 %28, ptr %11, align 4, !tbaa !44
  br label %12, !llvm.loop !173

29:                                               ; preds = %12
  call void @llvm.lifetime.end.p0(i64 4, ptr %11) #10
  ret void
}

; Function Attrs: nounwind uwtable
define internal void @copy_block(ptr noundef %0, ptr noundef %1, i32 noundef %2, i64 noundef %3) #1 {
  %5 = alloca ptr, align 8
  %6 = alloca ptr, align 8
  %7 = alloca i32, align 4
  %8 = alloca i64, align 8
  %9 = alloca ptr, align 8
  %10 = alloca ptr, align 8
  %11 = alloca i64, align 8
  store ptr %0, ptr %5, align 8, !tbaa !105
  store ptr %1, ptr %6, align 8, !tbaa !105
  store i32 %2, ptr %7, align 4, !tbaa !44
  store i64 %3, ptr %8, align 8, !tbaa !112
  call void @llvm.lifetime.start.p0(i64 8, ptr %9) #10
  %12 = load ptr, ptr %5, align 8, !tbaa !105
  store ptr %12, ptr %9, align 8, !tbaa !63
  call void @llvm.lifetime.start.p0(i64 8, ptr %10) #10
  %13 = load ptr, ptr %6, align 8, !tbaa !105
  store ptr %13, ptr %10, align 8, !tbaa !63
  call void @llvm.lifetime.start.p0(i64 8, ptr %11) #10
  %14 = load i64, ptr %8, align 8, !tbaa !112
  %15 = mul nsw i64 %14, 2
  store i64 %15, ptr %11, align 8, !tbaa !112
  %16 = load i32, ptr %7, align 4, !tbaa !44
  switch i32 %16, label %32 [
    i32 2, label %17
    i32 4, label %22
    i32 8, label %27
  ]

17:                                               ; preds = %4
  %18 = load ptr, ptr %9, align 8, !tbaa !63
  %19 = load ptr, ptr %10, align 8, !tbaa !63
  %20 = load i64, ptr %11, align 8, !tbaa !112
  %21 = load i64, ptr %11, align 8, !tbaa !112
  call void @copy_block4(ptr noundef %18, ptr noundef %19, i64 noundef %20, i64 noundef %21, i32 noundef 2)
  br label %32

22:                                               ; preds = %4
  %23 = load ptr, ptr %9, align 8, !tbaa !63
  %24 = load ptr, ptr %10, align 8, !tbaa !63
  %25 = load i64, ptr %11, align 8, !tbaa !112
  %26 = load i64, ptr %11, align 8, !tbaa !112
  call void @copy_block8(ptr noundef %23, ptr noundef %24, i64 noundef %25, i64 noundef %26, i32 noundef 4)
  br label %32

27:                                               ; preds = %4
  %28 = load ptr, ptr %9, align 8, !tbaa !63
  %29 = load ptr, ptr %10, align 8, !tbaa !63
  %30 = load i64, ptr %11, align 8, !tbaa !112
  %31 = load i64, ptr %11, align 8, !tbaa !112
  call void @copy_block16(ptr noundef %28, ptr noundef %29, i64 noundef %30, i64 noundef %31, i32 noundef 8)
  br label %32

32:                                               ; preds = %4, %27, %22, %17
  call void @llvm.lifetime.end.p0(i64 8, ptr %11) #10
  call void @llvm.lifetime.end.p0(i64 8, ptr %10) #10
  call void @llvm.lifetime.end.p0(i64 8, ptr %9) #10
  ret void
}