; Function Attrs: nofree norecurse nosync nounwind memory(argmem: readwrite) uwtable
define internal fastcc void @copy_block(ptr noundef writeonly captures(none) %0, ptr noundef readonly captures(none) %1, i32 noundef range(i32 0, 9) %2, i64 noundef %3) unnamed_addr #4 {
  %5 = shl nsw i64 %3, 1
  switch i32 %2, label %copy_block4.exit [
    i32 2, label %.preheader
    i32 4, label %.preheader20
    i32 8, label %.preheader22
  ]

.preheader:                                       ; preds = %4, %.preheader
  %.012.i = phi i32 [ %9, %.preheader ], [ 0, %4 ]
  %.0811.i = phi ptr [ %7, %.preheader ], [ %0, %4 ]
  %.0910.i = phi ptr [ %8, %.preheader ], [ %1, %4 ]
  %6 = load i32, ptr %.0910.i, align 1, !tbaa !46
  store i32 %6, ptr %.0811.i, align 1, !tbaa !46
  %7 = getelementptr inbounds i8, ptr %.0811.i, i64 %5
  %8 = getelementptr inbounds i8, ptr %.0910.i, i64 %5
  %9 = add nuw nsw i32 %.012.i, 1
  %exitcond.not.i = icmp eq i32 %9, 2
  br i1 %exitcond.not.i, label %copy_block4.exit, label %.preheader, !llvm.loop !135

.preheader20:                                     ; preds = %4, %.preheader20
  %.012.i15 = phi i32 [ %13, %.preheader20 ], [ 0, %4 ]
  %.0811.i16 = phi ptr [ %11, %.preheader20 ], [ %0, %4 ]
  %.0910.i17 = phi ptr [ %12, %.preheader20 ], [ %1, %4 ]
  %10 = load i64, ptr %.0910.i17, align 1, !tbaa !46
  store i64 %10, ptr %.0811.i16, align 1, !tbaa !46
  %11 = getelementptr inbounds i8, ptr %.0811.i16, i64 %5
  %12 = getelementptr inbounds i8, ptr %.0910.i17, i64 %5
  %13 = add nuw nsw i32 %.012.i15, 1
  %exitcond.not.i18 = icmp eq i32 %13, 4
  br i1 %exitcond.not.i18, label %copy_block4.exit, label %.preheader20, !llvm.loop !190

.preheader22:                                     ; preds = %4, %.preheader22
  %.014.i = phi i32 [ %20, %.preheader22 ], [ 0, %4 ]
  %.01013.i = phi ptr [ %18, %.preheader22 ], [ %0, %4 ]
  %.01112.i = phi ptr [ %19, %.preheader22 ], [ %1, %4 ]
  %14 = load i64, ptr %.01112.i, align 1, !tbaa !46
  store i64 %14, ptr %.01013.i, align 1, !tbaa !46
  %15 = getelementptr inbounds nuw i8, ptr %.01112.i, i64 8
  %16 = load i64, ptr %15, align 1, !tbaa !46
  %17 = getelementptr inbounds nuw i8, ptr %.01013.i, i64 8
  store i64 %16, ptr %17, align 1, !tbaa !46
  %18 = getelementptr inbounds i8, ptr %.01013.i, i64 %5
  %19 = getelementptr inbounds i8, ptr %.01112.i, i64 %5
  %20 = add nuw nsw i32 %.014.i, 1
  %exitcond.not.i19 = icmp eq i32 %20, 8
  br i1 %exitcond.not.i19, label %copy_block4.exit, label %.preheader22, !llvm.loop !191

copy_block4.exit:                                 ; preds = %.preheader22, %.preheader20, %.preheader, %4
  ret void
}